
      AUTOMATIC DISASSEMBLY OF test.bin BY D8TAPE                         Page 1


    1             TITLE "AUTOMATIC DISASSEMBLY OF test.bin BY D8TAPE"
    2             ////////////////////////////////////////////////////////////////////////////////
    3             /
    4             /   Automatic Disassembly of test.bin
    5             /   Generated 2020 03 23 11:14:54
    6             /   Generated by d8tape version 0.347
    7             /   Visit http://www.pdp12.org/pdp8/software/index.html for updates
    8             /
    9             /   Symbol format:
   10             /       AIx   -- Auto-index variables (address range 001x)
   11             /       Caaaa -- Constants (non-unique)
   12             /       Daaaa -- Data (read/write variables)
   13             /       Kvvvv -- Program-wide unique constants
   14             /       Laaaa -- Labels for control flow targets
   15             /       Saaaa -- Subroutines
   16             /
   17             /   Where:
   18             /       aaaa is the definition address
   19             /       vvvv is the value of the constant
   20             /       x    is the last digit of the address 001x for auto-index variables
   21             /
   22             /   1445 locations used, 1246 code and 0177 data
   23             ////////////////////////////////////////////////////////////////////////////////
   24             
   25       0000  *0000
   26             L0000,
   27 00000 7402  D0000,  7402                / HLT                                   
   28 00001 7402  D0001,  7402                / HLT                                   
   29 00002 7402      HLT                     /                                       @@0002=7402
   30 00003 7402      HLT                     /                                       @@0003=7402
   31             
   32       0040  *0040
   33 00040 0001  C0040,  0001                / AND   D0001                           
   34 00041 0000  D0041,  0000                / AND   L0000                           
   35 00042 0000  D0042,  0000                / AND   L0000                           
   36 00043 0000  D0043,  0000                / AND   L0000                           
   37 00044 0000  C0044,  0000                / AND   L0000                           
   38 00045 0000      AND   L0000             /                                       @@0045=0000
   39 00046 0000  D0046,  0000                / AND   L0000                           
   40 00047 0000  D0047,  0000                / AND   L0000                           
   41 00050 0000  D0050,  0000                / AND   L0000                           
   42 00051 0000  D0051,  0000                / AND   L0000                           
   43 00052 0000  D0052,  0000                / AND   L0000                           
   44 00053 0000  D0053,  0000                / AND   L0000                           
   45 00054 7777  C0054,  7777                / CLA MQA SCA MQL LSR +                 
   46 00055 0000  D0055,  0000                / AND   L0000                           
   47             
   48             ////////////////////////////////////////////////////////////////////////////////
   49             /
   50             /   SUBROUTINE:  S0056
   51             /
   52             /   Called from:
   53             /   1211 1550 
   54             /   Total 0002 (2) calls
   55             ////////////////////////////////////////////////////////////////////////////////
   56             S0056,
   57 00056 0000      0                       / return area

      AUTOMATIC DISASSEMBLY OF test.bin BY D8TAPE                         Page 2


   58 00057 6251  D0057,  6251                / CDF 5^10                              
   59 00060 6241  C0060,  6241                / CDF 4^10                              
   60 00061 6251      CDF 5^10                / Change to data field 5.               @@0061=6251
   61 00062 5456  C0062,  5456                / JMP I S0056                           
   62             
   63             ////////////////////////////////////////////////////////////////////////////////
   64             /
   65             /   SUBROUTINE:  S0063
   66             /
   67             /   Called from:
   68             /   0471 0531 0571 0633 0675 0726 0757 1206 
   69             /   Total 0010 (8) calls
   70             ////////////////////////////////////////////////////////////////////////////////
   71             S0063,
   72 00063 0000      0                       / return area
   73 00064 6252  D0064,  6252                / CIF 5^10                              
   74 00065 6242      CIF 4^10                / Prepare to change to instruction fie  @@0065=6242
   75 00066 6252      CIF 5^10                / Prepare to change to instruction fie  @@0066=6252
   76 00067 5463  C0067,  5463                / JMP I S0063                           
   77             
   78       0200  *0200
   79             
   80       0200  *0200
   81             L0200,
   82 00200 7300  C0200,  7300                / CLA CLL                               
   83 00201 7303      CLA CLL IAC BSW         / AC = 0100 (64)                        @@0201=7303
   84 00202 3051      DCA   D0051             /                                       @@0202=3051
   85 00203 3052      DCA   D0052             /                                       @@0203=3052
   86 00204 6040  C0204,  6040                / 6040                                  
   87 00205 1177      TAD   C0177             /                                       @@0205=1177
   88 00206 4576      JMS I C0176             / long call to S1267                    @@0206=4576
   89 00207 0000      AND   L0000             /                                       @@0207=0000
   90 00210 7600      7600                    /                                       @@0210=7600
   91 00211 0000      AND   L0000             /                                       @@0211=0000
   92 00212 1600  C0212,  1600                / TAD I L0200                           
   93 00213 7410      SKP                     /                                       @@0213=7410
   94 00214 7402      HLT                     /                                       @@0214=7402
   95             L0215,
   96 00215 7200      CLA                     /                                       @@0215=7200
   97 00216 1051      TAD   D0051             /                                       @@0216=1051
   98 00217 0175      AND   C0175             /                                       @@0217=0175
   99 00220 1174      TAD   C0174             /                                       @@0220=1174
  100 00221 3225      DCA   D0225             /                                       @@0221=3225
  101 00222 7215  C0222,  7215                / CLA IAC RAR RAL                       
  102 00223 1173      TAD   C0173             /                                       @@0223=1173
  103 00224 7450      SNA                     /                                       @@0224=7450
  104 00225 7402  D0225,  7402                / HLT                                   
  105 00226 4572      JMS I C0172             / long call to S1502                    @@0226=4572
  106 00227 7006      RTL                     /                                       @@0227=7006
  107 00230 7004      RAL                     /                                       @@0230=7004
  108 00231 0171      AND   C0171             /                                       @@0231=0171
  109 00232 1170      TAD   C0170             /                                       @@0232=1170
  110 00233 3057      DCA   D0057             /                                       @@0233=3057
  111 00234 6214      RDF                     / Read data field into AC6-8. Bit 0-5   @@0234=6214
  112 00235 1170      TAD   C0170             /                                       @@0235=1170
  113 00236 3064      DCA   D0064             /                                       @@0236=3064
  114 00237 3050      DCA   D0050             /                                       @@0237=3050

      AUTOMATIC DISASSEMBLY OF test.bin BY D8TAPE                         Page 3


  115 00240 5567      JMP I C0167             / long jump to L0400                    @@0240=5567
  116             
  117       0400  *0400
  118             L0400,
  119 00400 4566      JMS I C0166             / long call to S1062                    @@0400=4566
  120 00401 7777  C0401,  7777                / CLA MQA SCA MQL LSR +                 
  121 00402 0435  C0402,  0435                / AND I C0035                           
  122 00403 4565      JMS I C0165             / long call to S1531                    @@0403=4565
  123             L0404,
  124 00404 7421      MQL                     /                                       @@0404=7421
  125 00405 7501      MQA                     /                                       @@0405=7501
  126 00406 3441      DCA I D0041             /                                       @@0406=3441
  127 00407 7501      MQA                     /                                       @@0407=7501
  128 00410 7001      IAC                     /                                       @@0410=7001
  129 00411 4564      JMS I C0164             / long call to S1513                    @@0411=4564
  130 00412 2055      ISZ   D0055             /                                       @@0412=2055
  131 00413 5204      JMP   L0404             /                                       @@0413=5204
  132 00414 4565      JMS I C0165             / long call to S1531                    @@0414=4565
  133             L0415,
  134 00415 7421      MQL                     /                                       @@0415=7421
  135 00416 7501      MQA                     /                                       @@0416=7501
  136 00417 7041      CIA                     /                                       @@0417=7041
  137 00420 1441      TAD I D0041             /                                       @@0420=1441
  138 00421 7450      SNA                     /                                       @@0421=7450
  139 00422 5227      JMP   L0427             /                                       @@0422=5227
  140 00423 3047      DCA   D0047             /                                       @@0423=3047
  141 00424 7501      MQA                     /                                       @@0424=7501
  142 00425 3046      DCA   D0046             /                                       @@0425=3046
  143 00426 4563      JMS I C0163             / long call to S1200                    @@0426=4563
  144             L0427,
  145 00427 7501      MQA                     /                                       @@0427=7501
  146 00430 7001      IAC                     /                                       @@0430=7001
  147 00431 4564      JMS I C0164             / long call to S1513                    @@0431=4564
  148 00432 2055      ISZ   D0055             /                                       @@0432=2055
  149 00433 5215      JMP   L0415             /                                       @@0433=5215
  150 00434 4063  C0434,  4063                / JMS   S0063                           
  151 00435 4566      JMS I C0166             / long call to S1062                    @@0435=4566
  152 00436 7776      SPA SNA SZL CLA OSR HLT /                                       @@0436=7776
  153 00437 0472  C0437,  0472                / AND I C0072                           
  154 00440 4562      JMS I C0162             / long call to S1540                    @@0440=4562
  155             L0441,
  156 00441 7421      MQL                     /                                       @@0441=7421
  157 00442 7501      MQA                     /                                       @@0442=7501
  158 00443 3441      DCA I D0041             /                                       @@0443=3441
  159 00444 7501      MQA                     /                                       @@0444=7501
  160 00445 7001      IAC                     /                                       @@0445=7001
  161 00446 4561      JMS I C0161             / long call to S1522                    @@0446=4561
  162 00447 2055      ISZ   D0055             /                                       @@0447=2055
  163 00450 5241      JMP   L0441             /                                       @@0450=5241
  164 00451 4562      JMS I C0162             / long call to S1540                    @@0451=4562
  165             L0452,
  166 00452 7421      MQL                     /                                       @@0452=7421
  167 00453 7501      MQA                     /                                       @@0453=7501
  168 00454 7041      CIA                     /                                       @@0454=7041
  169 00455 1441      TAD I D0041             /                                       @@0455=1441
  170 00456 7450      SNA                     /                                       @@0456=7450
  171 00457 5264      JMP   L0464             /                                       @@0457=5264

      AUTOMATIC DISASSEMBLY OF test.bin BY D8TAPE                         Page 4


  172 00460 3047      DCA   D0047             /                                       @@0460=3047
  173 00461 7501      MQA                     /                                       @@0461=7501
  174 00462 3046      DCA   D0046             /                                       @@0462=3046
  175 00463 4563      JMS I C0163             / long call to S1200                    @@0463=4563
  176             L0464,
  177 00464 7501      MQA                     /                                       @@0464=7501
  178 00465 7001      IAC                     /                                       @@0465=7001
  179 00466 4561      JMS I C0161             / long call to S1522                    @@0466=4561
  180 00467 2055      ISZ   D0055             /                                       @@0467=2055
  181 00470 5252      JMP   L0452             /                                       @@0470=5252
  182 00471 4063      JMS   S0063             /                                       @@0471=4063
  183 00472 4566      JMS I C0166             / long call to S1062                    @@0472=4566
  184 00473 7775  C0473,  7775                / CLA MQA SCA MQL ASR +                 
  185 00474 0532      AND I C0132             /                                       @@0474=0532
  186 00475 4565      JMS I C0165             / long call to S1531                    @@0475=4565
  187             L0476,
  188 00476 7421      MQL                     /                                       @@0476=7421
  189 00477 7501      MQA                     /                                       @@0477=7501
  190 00500 4560      JMS I C0160             / long call to S1107                    @@0500=4560
  191 00501 3441      DCA I D0041             /                                       @@0501=3441
  192 00502 7501      MQA                     /                                       @@0502=7501
  193 00503 7001      IAC                     /                                       @@0503=7001
  194 00504 4564      JMS I C0164             / long call to S1513                    @@0504=4564
  195 00505 2055      ISZ   D0055             /                                       @@0505=2055
  196 00506 5276      JMP   L0476             /                                       @@0506=5276
  197 00507 4565      JMS I C0165             / long call to S1531                    @@0507=4565
  198             L0510,
  199 00510 7421      MQL                     /                                       @@0510=7421
  200 00511 7501      MQA                     /                                       @@0511=7501
  201 00512 4560      JMS I C0160             / long call to S1107                    @@0512=4560
  202 00513 7041      CIA                     /                                       @@0513=7041
  203 00514 1441      TAD I D0041             /                                       @@0514=1441
  204 00515 7450      SNA                     /                                       @@0515=7450
  205 00516 5324      JMP   L0524             /                                       @@0516=5324
  206 00517 3047      DCA   D0047             /                                       @@0517=3047
  207 00520 7501      MQA                     /                                       @@0520=7501
  208 00521 4560      JMS I C0160             / long call to S1107                    @@0521=4560
  209 00522 3046      DCA   D0046             /                                       @@0522=3046
  210 00523 4563      JMS I C0163             / long call to S1200                    @@0523=4563
  211             L0524,
  212 00524 7501      MQA                     /                                       @@0524=7501
  213 00525 7001      IAC                     /                                       @@0525=7001
  214 00526 4564      JMS I C0164             / long call to S1513                    @@0526=4564
  215 00527 2055      ISZ   D0055             /                                       @@0527=2055
  216 00530 5310      JMP   L0510             /                                       @@0530=5310
  217 00531 4063      JMS   S0063             /                                       @@0531=4063
  218 00532 4566      JMS I C0166             / long call to S1062                    @@0532=4566
  219 00533 7774      SPA SNA SZL CLA OSR     /                                       @@0533=7774
  220 00534 0572      AND I C0172             /                                       @@0534=0572
  221 00535 4562      JMS I C0162             / long call to S1540                    @@0535=4562
  222             L0536,
  223 00536 7421      MQL                     /                                       @@0536=7421
  224 00537 7501      MQA                     /                                       @@0537=7501
  225 00540 4560      JMS I C0160             / long call to S1107                    @@0540=4560
  226 00541 3441      DCA I D0041             /                                       @@0541=3441
  227 00542 7501      MQA                     /                                       @@0542=7501
  228 00543 7001      IAC                     /                                       @@0543=7001

      AUTOMATIC DISASSEMBLY OF test.bin BY D8TAPE                         Page 5


  229 00544 4561      JMS I C0161             / long call to S1522                    @@0544=4561
  230 00545 2055      ISZ   D0055             /                                       @@0545=2055
  231 00546 5336      JMP   L0536             /                                       @@0546=5336
  232 00547 4562      JMS I C0162             / long call to S1540                    @@0547=4562
  233             L0550,
  234 00550 7421      MQL                     /                                       @@0550=7421
  235 00551 7501      MQA                     /                                       @@0551=7501
  236 00552 4560      JMS I C0160             / long call to S1107                    @@0552=4560
  237 00553 7041      CIA                     /                                       @@0553=7041
  238 00554 1441      TAD I D0041             /                                       @@0554=1441
  239 00555 7450      SNA                     /                                       @@0555=7450
  240 00556 5364      JMP   L0564             /                                       @@0556=5364
  241 00557 3047      DCA   D0047             /                                       @@0557=3047
  242 00560 7501      MQA                     /                                       @@0560=7501
  243 00561 4560      JMS I C0160             / long call to S1107                    @@0561=4560
  244 00562 3046      DCA   D0046             /                                       @@0562=3046
  245 00563 4563      JMS I C0163             / long call to S1200                    @@0563=4563
  246             L0564,
  247 00564 7501      MQA                     /                                       @@0564=7501
  248 00565 7001      IAC                     /                                       @@0565=7001
  249 00566 4561      JMS I C0161             / long call to S1522                    @@0566=4561
  250 00567 2055      ISZ   D0055             /                                       @@0567=2055
  251 00570 5350      JMP   L0550             /                                       @@0570=5350
  252 00571 4063      JMS   S0063             /                                       @@0571=4063
  253 00572 4566      JMS I C0166             / long call to S1062                    @@0572=4566
  254 00573 7773  C0573,  7773                / CLA MQA SCA MQL SHL +                 
  255 00574 0634      AND I C0434             /                                       @@0574=0634
  256 00575 4565      JMS I C0165             / long call to S1531                    @@0575=4565
  257             L0576,
  258 00576 7421      MQL                     /                                       @@0576=7421
  259 00577 7501      MQA                     /                                       @@0577=7501
  260 00600 4560      JMS I C0160             / long call to S1107                    @@0600=4560
  261 00601 7040      CMA                     /                                       @@0601=7040
  262 00602 3441      DCA I D0041             /                                       @@0602=3441
  263 00603 7501      MQA                     /                                       @@0603=7501
  264 00604 7001      IAC                     /                                       @@0604=7001
  265 00605 4564      JMS I C0164             / long call to S1513                    @@0605=4564
  266 00606 2055      ISZ   D0055             /                                       @@0606=2055
  267 00607 5777      JMP I C0777             / long jump to L0576                    @@0607=5777
  268 00610 4565      JMS I C0165             / long call to S1531                    @@0610=4565
  269             L0611,
  270 00611 7421      MQL                     /                                       @@0611=7421
  271 00612 7501      MQA                     /                                       @@0612=7501
  272 00613 4560      JMS I C0160             / long call to S1107                    @@0613=4560
  273 00614 7001      IAC                     /                                       @@0614=7001
  274 00615 1441      TAD I D0041             /                                       @@0615=1441
  275 00616 7450      SNA                     /                                       @@0616=7450
  276 00617 5226      JMP   L0626             /                                       @@0617=5226
  277 00620 3047      DCA   D0047             /                                       @@0620=3047
  278 00621 7501      MQA                     /                                       @@0621=7501
  279 00622 4560      JMS I C0160             / long call to S1107                    @@0622=4560
  280 00623 7040      CMA                     /                                       @@0623=7040
  281 00624 3046      DCA   D0046             /                                       @@0624=3046
  282 00625 4563      JMS I C0163             / long call to S1200                    @@0625=4563
  283             L0626,
  284 00626 7501      MQA                     /                                       @@0626=7501
  285 00627 7001      IAC                     /                                       @@0627=7001

      AUTOMATIC DISASSEMBLY OF test.bin BY D8TAPE                         Page 6


  286 00630 4564      JMS I C0164             / long call to S1513                    @@0630=4564
  287 00631 2055      ISZ   D0055             /                                       @@0631=2055
  288 00632 5211      JMP   L0611             /                                       @@0632=5211
  289 00633 4063      JMS   S0063             /                                       @@0633=4063
  290 00634 4566      JMS I C0166             / long call to S1062                    @@0634=4566
  291 00635 7772      SPA SNA SZL CLA HLT     /                                       @@0635=7772
  292 00636 0676      AND I C0676             /                                       @@0636=0676
  293 00637 4562      JMS I C0162             / long call to S1540                    @@0637=4562
  294             L0640,
  295 00640 7421      MQL                     /                                       @@0640=7421
  296 00641 7501      MQA                     /                                       @@0641=7501
  297 00642 4560      JMS I C0160             / long call to S1107                    @@0642=4560
  298 00643 7040      CMA                     /                                       @@0643=7040
  299 00644 3441      DCA I D0041             /                                       @@0644=3441
  300 00645 7501      MQA                     /                                       @@0645=7501
  301 00646 7001      IAC                     /                                       @@0646=7001
  302 00647 4561      JMS I C0161             / long call to S1522                    @@0647=4561
  303 00650 2055      ISZ   D0055             /                                       @@0650=2055
  304 00651 5240      JMP   L0640             /                                       @@0651=5240
  305 00652 4562      JMS I C0162             / long call to S1540                    @@0652=4562
  306             L0653,
  307 00653 7421      MQL                     /                                       @@0653=7421
  308 00654 7501      MQA                     /                                       @@0654=7501
  309 00655 4560      JMS I C0160             / long call to S1107                    @@0655=4560
  310 00656 7001      IAC                     /                                       @@0656=7001
  311 00657 1441      TAD I D0041             /                                       @@0657=1441
  312 00660 7450      SNA                     /                                       @@0660=7450
  313 00661 5270      JMP   L0670             /                                       @@0661=5270
  314 00662 3047      DCA   D0047             /                                       @@0662=3047
  315 00663 7501      MQA                     /                                       @@0663=7501
  316 00664 4560      JMS I C0160             / long call to S1107                    @@0664=4560
  317 00665 7040      CMA                     /                                       @@0665=7040
  318 00666 3046      DCA   D0046             /                                       @@0666=3046
  319 00667 4563      JMS I C0163             / long call to S1200                    @@0667=4563
  320             L0670,
  321 00670 7501      MQA                     /                                       @@0670=7501
  322 00671 7001      IAC                     /                                       @@0671=7001
  323 00672 4561      JMS I C0161             / long call to S1522                    @@0672=4561
  324 00673 2055      ISZ   D0055             /                                       @@0673=2055
  325 00674 5253      JMP   L0653             /                                       @@0674=5253
  326 00675 4063      JMS   S0063             /                                       @@0675=4063
  327 00676 4566  C0676,  4566                / JMS I C0166                           
  328 00677 7771  C0677,  7771                / CLA MQA SCA MQL NMI                   
  329 00700 0727      AND I C0727             /                                       @@0700=0727
  330 00701 4565      JMS I C0165             / long call to S1531                    @@0701=4565
  331 00702 7421      MQL                     /                                       @@0702=7421
  332             L0703,
  333 00703 4557      JMS I C0157             / long call to S1141                    @@0703=4557
  334 00704 3441      DCA I D0041             /                                       @@0704=3441
  335 00705 4564      JMS I C0164             / long call to S1513                    @@0705=4564
  336 00706 2055      ISZ   D0055             /                                       @@0706=2055
  337 00707 5303      JMP   L0703             /                                       @@0707=5303
  338 00710 4565      JMS I C0165             / long call to S1531                    @@0710=4565
  339 00711 7421      MQL                     /                                       @@0711=7421
  340             L0712,
  341 00712 4557      JMS I C0157             / long call to S1141                    @@0712=4557
  342 00713 7041      CIA                     /                                       @@0713=7041

      AUTOMATIC DISASSEMBLY OF test.bin BY D8TAPE                         Page 7


  343 00714 1441      TAD I D0041             /                                       @@0714=1441
  344 00715 7450      SNA                     /                                       @@0715=7450
  345 00716 5323      JMP   L0723             /                                       @@0716=5323
  346 00717 3047      DCA   D0047             /                                       @@0717=3047
  347 00720 7501      MQA                     /                                       @@0720=7501
  348 00721 3046      DCA   D0046             /                                       @@0721=3046
  349 00722 4563      JMS I C0163             / long call to S1200                    @@0722=4563
  350             L0723,
  351 00723 4564      JMS I C0164             / long call to S1513                    @@0723=4564
  352 00724 2055      ISZ   D0055             /                                       @@0724=2055
  353 00725 5312      JMP   L0712             /                                       @@0725=5312
  354 00726 4063      JMS   S0063             /                                       @@0726=4063
  355 00727 4566  C0727,  4566                / JMS I C0166                           
  356 00730 7770      SPA SNA SZL CLA         /                                       @@0730=7770
  357 00731 1000      TAD   L0000             /                                       @@0731=1000
  358 00732 4562      JMS I C0162             / long call to S1540                    @@0732=4562
  359 00733 7421      MQL                     /                                       @@0733=7421
  360             L0734,
  361 00734 4557      JMS I C0157             / long call to S1141                    @@0734=4557
  362 00735 3441      DCA I D0041             /                                       @@0735=3441
  363 00736 4561      JMS I C0161             / long call to S1522                    @@0736=4561
  364 00737 2055      ISZ   D0055             /                                       @@0737=2055
  365 00740 5334      JMP   L0734             /                                       @@0740=5334
  366 00741 4562      JMS I C0162             / long call to S1540                    @@0741=4562
  367 00742 7421      MQL                     /                                       @@0742=7421
  368             L0743,
  369 00743 4557      JMS I C0157             / long call to S1141                    @@0743=4557
  370 00744 7041      CIA                     /                                       @@0744=7041
  371 00745 1441      TAD I D0041             /                                       @@0745=1441
  372 00746 7450      SNA                     /                                       @@0746=7450
  373 00747 5354      JMP   L0754             /                                       @@0747=5354
  374 00750 3047      DCA   D0047             /                                       @@0750=3047
  375 00751 7501      MQA                     /                                       @@0751=7501
  376 00752 3046      DCA   D0046             /                                       @@0752=3046
  377 00753 4563      JMS I C0163             / long call to S1200                    @@0753=4563
  378             L0754,
  379 00754 4561      JMS I C0161             / long call to S1522                    @@0754=4561
  380 00755 2055      ISZ   D0055             /                                       @@0755=2055
  381 00756 5343      JMP   L0743             /                                       @@0756=5343
  382 00757 4063      JMS   S0063             /                                       @@0757=4063
  383 00760 5556      JMP I C0156             / long jump to L1000                    @@0760=5556
  384             
  385       0777  *0777
  386             C0777,
  387 00777 0576  C0777,  0576                / AND I C0176                           
  388             
  389       1000  *1000
  390             L1000,
  391 01000 2051  C1000,  2051                / ISZ   D0051                           
  392 01001 7410      SKP                     /                                       @@1001=7410
  393 01002 5200      JMP   L1000             /                                       @@1002=5200
  394 01003 7200      CLA                     /                                       @@1003=7200
  395 01004 1177      TAD   C0177             /                                       @@1004=1177
  396 01005 4576      JMS I C0176             / long call to S1267                    @@1005=4576
  397 01006 0000      AND   L0000             /                                       @@1006=0000
  398 01007 1600      TAD I L1000             /                                       @@1007=1600
  399 01010 0000      AND   L0000             /                                       @@1010=0000

      AUTOMATIC DISASSEMBLY OF test.bin BY D8TAPE                         Page 8


  400 01011 7600      7600                    /                                       @@1011=7600
  401 01012 4572      JMS I C0172             / long call to S1502                    @@1012=4572
  402 01013 7500      SMA                     /                                       @@1013=7500
  403 01014 4555      JMS I C0155             / long call to S1457                    @@1014=4555
  404 01015 4554      JMS I C0154             / long call to S1420                    @@1015=4554
  405 01016 1044      TAD   C0044             /                                       @@1016=1044
  406 01017 1051      TAD   D0051             /                                       @@1017=1051
  407 01020 4553      JMS I C0153             / long call to S1400                    @@1020=4553
  408 01021 4554      JMS I C0154             / long call to S1420                    @@1021=4554
  409 01022 1051  D1022,  1051                / TAD   D0051                           
  410 01023 1057      TAD   D0057             /                                       @@1023=1057
  411 01024 7112      CLL RTR                 /                                       @@1024=7112
  412 01025 7010      RAR                     /                                       @@1025=7010
  413 01026 0175      AND   C0175             /                                       @@1026=0175
  414 01027 1152      TAD   C0152             /                                       @@1027=1152
  415 01030 4551      JMS I C0151             / long call to S1473                    @@1030=4551
  416 01031 4554      JMS I C0154             / long call to S1420                    @@1031=4554
  417 01032 1055      TAD   D0055             /                                       @@1032=1055
  418 01033 1052      TAD   D0052             /                                       @@1033=1052
  419 01034 4553      JMS I C0153             / long call to S1400                    @@1034=4553
  420 01035 4550      JMS I C0150             / long call to S1464                    @@1035=4550
  421 01036 4572      JMS I C0172             / long call to S1502                    @@1036=4572
  422 01037 7006      RTL                     /                                       @@1037=7006
  423 01040 7420      SNL                     /                                       @@1040=7420
  424 01041 5547      JMP I C0147             / long jump to L0215                    @@1041=5547
  425 01042 7402      HLT                     /                                       @@1042=7402
  426 01043 5547      JMP I C0147             / long jump to L0215                    @@1043=5547
  427 01044 0516  C1044,  0516                / AND I C0116                           
  428 01045 0440      AND I C0040             /                                       @@1045=0440
  429 01046 2001      ISZ   D0001             /                                       @@1046=2001
  430 01047 2323      ISZ   D1123             /                                       @@1047=2323
  431 01050 4000  C1050,  4000                / JMS   L0000                           
  432 01051 4006  C1051,  4006                / JMS   C0006                           
  433 01052 1105  C1052,  1105                / TAD   C0105                           
  434 01053 1404  C1053,  1404                / TAD I C0004                           
  435 01054 4000  C1054,  4000                / JMS   L0000                           
  436 01055 4005  C1055,  4005                / JMS   C0005                           
  437 01056 2222      ISZ   D1022             /                                       @@1056=2222
  438 01057 1722      TAD I C1122             /                                       @@1057=1722
  439 01060 2340      ISZ   D1140             /                                       @@1060=2340
  440 01061 0000      AND   L0000             /                                       @@1061=0000
  441             
  442             ////////////////////////////////////////////////////////////////////////////////
  443             /
  444             /   SUBROUTINE:  S1062
  445             /
  446             /   Called from:
  447             /   0400 0435 0472 0532 0572 0634 
  448             /   Total 0006 (6) calls
  449             ////////////////////////////////////////////////////////////////////////////////
  450             S1062,
  451 01062 0000      0                       / return area
  452 01063 7300      CLA CLL                 / AC = 0000                             @@1063=7300
  453 01064 2050      ISZ   D0050             /                                       @@1064=2050
  454 01065 1050      TAD   D0050             /                                       @@1065=1050
  455 01066 1662      TAD I S1062             /                                       @@1066=1662
  456 01067 7440      SZA                     /                                       @@1067=7440

      AUTOMATIC DISASSEMBLY OF test.bin BY D8TAPE                         Page 9


  457 01070 7402      HLT                     /                                       @@1070=7402
  458 01071 4572      JMS I C0172             / long call to S1502                    @@1071=4572
  459 01072 0146      AND   C0146             /                                       @@1072=0146
  460 01073 7450      SNA                     /                                       @@1073=7450
  461 01074 5304      JMP   L1104             /                                       @@1074=5304
  462 01075 1662      TAD I S1062             /                                       @@1075=1662
  463 01076 7650      SNA CLA                 /                                       @@1076=7650
  464 01077 5304      JMP   L1104             /                                       @@1077=5304
  465 01100 2262      ISZ   S1062             /                                       @@1100=2262
  466 01101 1662      TAD I S1062             /                                       @@1101=1662
  467 01102 3262      DCA   S1062             /                                       @@1102=3262
  468 01103 5662      JMP I S1062             / return                                @@1103=5662
  469             L1104,
  470 01104 2262      ISZ   S1062             /                                       @@1104=2262
  471 01105 2262      ISZ   S1062             /                                       @@1105=2262
  472 01106 5662      JMP I S1062             / return                                @@1106=5662
  473             
  474             ////////////////////////////////////////////////////////////////////////////////
  475             /
  476             /   SUBROUTINE:  S1107
  477             /
  478             /   Called from:
  479             /   0500 0512 0521 0540 0552 0561 0600 0613 0622 0642 0655 0664 
  480             /   Total 0014 (12) calls
  481             ////////////////////////////////////////////////////////////////////////////////
  482             S1107,
  483 01107 0000      0                       / return area
  484 01110 3042      DCA   D0042             /                                       @@1110=3042
  485 01111 1051      TAD   D0051             /                                       @@1111=1051
  486 01112 0145      AND   C0145             /                                       @@1112=0145
  487 01113 7040      CMA                     /                                       @@1113=7040
  488 01114 3043      DCA   D0043             /                                       @@1114=3043
  489 01115 1042      TAD   D0042             /                                       @@1115=1042
  490 01116 7104      CLL RAL                 /                                       @@1116=7104
  491 01117 7430      SZL                     /                                       @@1117=7430
  492 01120 7001      IAC                     /                                       @@1120=7001
  493 01121 2043      ISZ   D0043             /                                       @@1121=2043
  494 01122 5316  C1122,  5316                / JMP   C1116                           
  495 01123 5707  D1123,  5707                / JMP I S1107                           
  496 01124 0000      AND   L0000             /                                       @@1124=0000
  497 01125 7200      CLA                     /                                       @@1125=7200
  498 01126 1144      TAD   C0144             /                                       @@1126=1144
  499 01127 3042      DCA   D0042             /                                       @@1127=3042
  500 01130 7701      CLA MQA                 /                                       @@1130=7701
  501 01131 3043      DCA   D0043             /                                       @@1131=3043
  502             L1132,
  503 01132 1043      TAD   D0043             /                                       @@1132=1043
  504 01133 2042      ISZ   D0042             /                                       @@1133=2042
  505 01134 5332      JMP   L1132             /                                       @@1134=5332
  506 01135 1143      TAD   C0143             /                                       @@1135=1143
  507 01136 7421      MQL                     /                                       @@1136=7421
  508 01137 7501      MQA                     /                                       @@1137=7501
  509 01140 5724  D1140,  5724                / JMP I C1124                           
  510             
  511             ////////////////////////////////////////////////////////////////////////////////
  512             /
  513             /   SUBROUTINE:  S1141

      AUTOMATIC DISASSEMBLY OF test.bin BY D8TAPE                        Page 10


  514             /
  515             /   Called from:
  516             /   0703 0712 0734 0743 
  517             /   Total 0004 (4) calls
  518             ////////////////////////////////////////////////////////////////////////////////
  519             S1141,
  520 01141 0000      0                       / return area
  521 01142 7701      CLA MQA                 /                                       @@1142=7701
  522 01143 3042      DCA   D0042             /                                       @@1143=3042
  523 01144 1042      TAD   D0042             /                                       @@1144=1042
  524 01145 7104      CLL RAL                 /                                       @@1145=7104
  525 01146 7104      CLL RAL                 /                                       @@1146=7104
  526 01147 1042      TAD   D0042             /                                       @@1147=1042
  527 01150 1042      TAD   D0042             /                                       @@1150=1042
  528 01151 1042      TAD   D0042             /                                       @@1151=1042
  529 01152 7104      CLL RAL                 /                                       @@1152=7104
  530 01153 7104      CLL RAL                 /                                       @@1153=7104
  531 01154 1042      TAD   D0042             /                                       @@1154=1042
  532 01155 1143      TAD   C0143             /                                       @@1155=1143
  533 01156 7421      MQL                     /                                       @@1156=7421
  534 01157 7501      MQA                     /                                       @@1157=7501
  535 01160 5741      JMP I S1141             / return                                @@1160=5741
  536             
  537       1200  *1200
  538             
  539             ////////////////////////////////////////////////////////////////////////////////
  540             /
  541             /   SUBROUTINE:  S1200
  542             /
  543             /   Called from:
  544             /   0426 0463 0523 0563 0625 0667 0722 0753 
  545             /   Total 0010 (8) calls
  546             ////////////////////////////////////////////////////////////////////////////////
  547             S1200,
  548 01200 0000      0                       / return area
  549 01201 7200      CLA                     /                                       @@1201=7200
  550 01202 1052      TAD   D0052             /                                       @@1202=1052
  551 01203 0145      AND   C0145             /                                       @@1203=0145
  552 01204 7640      SZA CLA                 /                                       @@1204=7640
  553 01205 5212      JMP   L1212             /                                       @@1205=5212
  554 01206 4063      JMS   S0063             /                                       @@1206=4063
  555 01207 4554      JMS I C0154             / long call to S1420                    @@1207=4554
  556 01210 1246      TAD   C1246             /                                       @@1210=1246
  557 01211 4056      JMS   S0056             /                                       @@1211=4056
  558             L1212,
  559 01212 1051      TAD   D0051             /                                       @@1212=1051
  560 01213 4553      JMS I C0153             / long call to S1400                    @@1213=4553
  561 01214 4542      JMS I C0142             / long call to S1452                    @@1214=4542
  562 01215 1052      TAD   D0052             /                                       @@1215=1052
  563 01216 4553      JMS I C0153             / long call to S1400                    @@1216=4553
  564 01217 4542      JMS I C0142             / long call to S1452                    @@1217=4542
  565 01220 1050      TAD   D0050             /                                       @@1220=1050
  566 01221 4553      JMS I C0153             / long call to S1400                    @@1221=4553
  567 01222 4542      JMS I C0142             / long call to S1452                    @@1222=4542
  568 01223 6214  D1223,  6214                / RDF                                   
  569 01224 7112      CLL RTR                 /                                       @@1224=7112
  570 01225 7010      RAR                     /                                       @@1225=7010

      AUTOMATIC DISASSEMBLY OF test.bin BY D8TAPE                        Page 11


  571 01226 1152      TAD   C0152             /                                       @@1226=1152
  572 01227 4551      JMS I C0151             / long call to S1473                    @@1227=4551
  573 01230 1041      TAD   D0041             /                                       @@1230=1041
  574 01231 4553      JMS I C0153             / long call to S1400                    @@1231=4553
  575 01232 4542      JMS I C0142             / long call to S1452                    @@1232=4542
  576 01233 1046      TAD   D0046             /                                       @@1233=1046
  577 01234 4553      JMS I C0153             / long call to S1400                    @@1234=4553
  578 01235 4542      JMS I C0142             / long call to S1452                    @@1235=4542
  579 01236 1047      TAD   D0047             /                                       @@1236=1047
  580 01237 1046      TAD   D0046             /                                       @@1237=1046
  581 01240 4553      JMS I C0153             / long call to S1400                    @@1240=4553
  582 01241 4550      JMS I C0150             / long call to S1464                    @@1241=4550
  583             L1242,
  584 01242 2052      ISZ   D0052             /                                       @@1242=2052
  585 01243 7410      SKP                     /                                       @@1243=7410
  586 01244 5242      JMP   L1242             /                                       @@1244=5242
  587 01245 5600      JMP I S1200             / return                                @@1245=5600
  588 01246 3720  C1246,  3720                / DCA I C1320                           
  589 01247 0123  C1247,  0123                / AND   C0123                           
  590 01250 2340  C1250,  2340                / ISZ   C1340                           
  591 01251 0522  C1251,  0522                / AND I C0122                           
  592 01252 2223      ISZ   D1223             /                                       @@1252=2223
  593 01253 4024  C1253,  4024                / JMS   C0024                           
  594 01254 0523  C1254,  0523                / AND I C0123                           
  595 01255 2440      ISZ I C0040             /                                       @@1255=2440
  596 01256 0104  C1256,  0104                / AND   C0104                           
  597 01257 0422  C1257,  0422                / AND I C0022                           
  598 01260 2340  C1260,  2340                / ISZ   C1340                           
  599 01261 0530      AND I C0130             /                                       @@1261=0530
  600 01262 2004  C1262,  2004                / ISZ   C0004                           
  601 01263 4022  C1263,  4022                / JMS   C0022                           
  602 01264 0326      AND   C1326             /                                       @@1264=0326
  603 01265 0437  C1265,  0437                / AND I C0037                           
  604 01266 0000      AND   L0000             /                                       @@1266=0000
  605             
  606             ////////////////////////////////////////////////////////////////////////////////
  607             /
  608             /   SUBROUTINE:  S1267
  609             /
  610             /   Called from:
  611             /   0206 1005 
  612             /   Total 0002 (2) calls
  613             ////////////////////////////////////////////////////////////////////////////////
  614             S1267,
  615 01267 0000      0                       / return area
  616 01270 3333      DCA   D1333             /                                       @@1270=3333
  617 01271 6214      RDF                     / Read data field into AC6-8. Bit 0-5   @@1271=6214
  618 01272 1170      TAD   C0170             /                                       @@1272=1170
  619 01273 3331      DCA   D1331             /                                       @@1273=3331
  620 01274 6224      RIF                     / Read instruction field into AC6-8. B  @@1274=6224
  621 01275 1170      TAD   C0170             /                                       @@1275=1170
  622 01276 3277      DCA   D1277             /                                       @@1276=3277
  623 01277 7402  D1277,  7402                / HLT                                   
  624 01300 1667      TAD I S1267             /                                       @@1300=1667
  625 01301 1170      TAD   C0170             /                                       @@1301=1170
  626 01302 3316      DCA   L1316             /                                       @@1302=3316
  627 01303 2267      ISZ   S1267             /                                       @@1303=2267

      AUTOMATIC DISASSEMBLY OF test.bin BY D8TAPE                        Page 12


  628 01304 1667      TAD I S1267             /                                       @@1304=1667
  629 01305 3334      DCA   D1334             /                                       @@1305=3334
  630 01306 2267      ISZ   S1267             /                                       @@1306=2267
  631 01307 1667      TAD I S1267             /                                       @@1307=1667
  632 01310 1170      TAD   C0170             /                                       @@1310=1170
  633 01311 3322      DCA   D1322             /                                       @@1311=3322
  634 01312 2267      ISZ   S1267             /                                       @@1312=2267
  635 01313 1667      TAD I S1267             /                                       @@1313=1667
  636 01314 3335      DCA   D1335             /                                       @@1314=3335
  637 01315 2267      ISZ   S1267             /                                       @@1315=2267
  638             L1316,
  639 01316 7402  D1316,  7402                / HLT                                   
  640 01317 1734      TAD I D1334             /                                       @@1317=1734
  641 01320 2334      ISZ   D1334             /                                       @@1320=2334
  642 01321 7000      NOP                     /                                       @@1321=7000
  643 01322 7402  D1322,  7402                / HLT                                   
  644 01323 3735      DCA I D1335             /                                       @@1323=3735
  645 01324 2335      ISZ   D1335             /                                       @@1324=2335
  646 01325 7000      NOP                     /                                       @@1325=7000
  647 01326 2333  C1326,  2333                / ISZ   D1333                           
  648 01327 5316      JMP   L1316             /                                       @@1327=5316
  649 01330 7200      CLA                     /                                       @@1330=7200
  650 01331 7402  D1331,  7402                / HLT                                   
  651 01332 5667      JMP I S1267             / return                                @@1332=5667
  652 01333 0000  D1333,  0000                / AND   L0000                           
  653 01334 0000  D1334,  0000                / AND   L0000                           
  654 01335 0000  D1335,  0000                / AND   L0000                           
  655             
  656       1400  *1400
  657             
  658             ////////////////////////////////////////////////////////////////////////////////
  659             /
  660             /   SUBROUTINE:  S1400
  661             /
  662             /   Called from:
  663             /   1020 1034 1213 1216 1221 1231 1234 1240 
  664             /   Total 0010 (8) calls
  665             ////////////////////////////////////////////////////////////////////////////////
  666             S1400,
  667 01400 0000      0                       / return area
  668 01401 7104      CLL RAL                 /                                       @@1401=7104
  669 01402 3042      DCA   D0042             /                                       @@1402=3042
  670 01403 1141      TAD   C0141             /                                       @@1403=1141
  671 01404 3043      DCA   D0043             /                                       @@1404=3043
  672             L1405,
  673 01405 1042      TAD   D0042             /                                       @@1405=1042
  674 01406 7006      RTL                     /                                       @@1406=7006
  675 01407 7004      RAL                     /                                       @@1407=7004
  676 01410 3042      DCA   D0042             /                                       @@1410=3042
  677 01411 1042      TAD   D0042             /                                       @@1411=1042
  678 01412 0175      AND   C0175             /                                       @@1412=0175
  679 01413 1152      TAD   C0152             /                                       @@1413=1152
  680 01414 4551      JMS I C0151             / long call to S1473                    @@1414=4551
  681 01415 2043      ISZ   D0043             /                                       @@1415=2043
  682 01416 5205      JMP   L1405             /                                       @@1416=5205
  683 01417 5600      JMP I S1400             / return                                @@1417=5600
  684             

      AUTOMATIC DISASSEMBLY OF test.bin BY D8TAPE                        Page 13


  685             ////////////////////////////////////////////////////////////////////////////////
  686             /
  687             /   SUBROUTINE:  S1420
  688             /
  689             /   Called from:
  690             /   1015 1021 1031 1207 
  691             /   Total 0004 (4) calls
  692             ////////////////////////////////////////////////////////////////////////////////
  693             S1420,
  694 01420 0000      0                       / return area
  695 01421 7200      CLA                     /                                       @@1421=7200
  696 01422 1620      TAD I S1420             /                                       @@1422=1620
  697 01423 3042      DCA   D0042             /                                       @@1423=3042
  698 01424 2220      ISZ   S1420             /                                       @@1424=2220
  699             L1425,
  700 01425 1442      TAD I D0042             /                                       @@1425=1442
  701 01426 7002      BSW                     /                                       @@1426=7002
  702 01427 4234      JMS   S1434             /                                       @@1427=4234
  703 01430 1442      TAD I D0042             /                                       @@1430=1442
  704 01431 4234      JMS   S1434             /                                       @@1431=4234
  705 01432 2042      ISZ   D0042             /                                       @@1432=2042
  706 01433 5225      JMP   L1425             /                                       @@1433=5225
  707             
  708             ////////////////////////////////////////////////////////////////////////////////
  709             /
  710             /   SUBROUTINE:  S1434
  711             /
  712             /   Called from:
  713             /   1427 1431 
  714             /   Total 0002 (2) calls
  715             ////////////////////////////////////////////////////////////////////////////////
  716             S1434,
  717 01434 0000      0                       / return area
  718 01435 0140      AND   C0140             /                                       @@1435=0140
  719 01436 7450      SNA                     /                                       @@1436=7450
  720 01437 5620      JMP I S1420             / return                                @@1437=5620
  721 01440 1137      TAD   C0137             /                                       @@1440=1137
  722 01441 7440      SZA                     /                                       @@1441=7440
  723 01442 5245      JMP   L1445             /                                       @@1442=5245
  724 01443 4550      JMS I C0150             / long call to S1464                    @@1443=4550
  725 01444 5634      JMP I S1434             / return                                @@1444=5634
  726             L1445,
  727 01445 7510      SPA                     /                                       @@1445=7510
  728 01446 1136      TAD   C0136             /                                       @@1446=1136
  729 01447 1135      TAD   C0135             /                                       @@1447=1135
  730 01450 4551      JMS I C0151             / long call to S1473                    @@1450=4551
  731 01451 5634      JMP I S1434             / return                                @@1451=5634
  732             
  733             ////////////////////////////////////////////////////////////////////////////////
  734             /
  735             /   SUBROUTINE:  S1452
  736             /
  737             /   Called from:
  738             /   1214 1217 1222 1232 1235 
  739             /   Total 0005 (5) calls
  740             ////////////////////////////////////////////////////////////////////////////////
  741             S1452,

      AUTOMATIC DISASSEMBLY OF test.bin BY D8TAPE                        Page 14


  742 01452 0000      0                       / return area
  743 01453 7200      CLA                     /                                       @@1453=7200
  744 01454 1134      TAD   C0134             /                                       @@1454=1134
  745 01455 4551      JMS I C0151             / long call to S1473                    @@1455=4551
  746 01456 5652      JMP I S1452             / return                                @@1456=5652
  747             
  748             ////////////////////////////////////////////////////////////////////////////////
  749             /
  750             /   SUBROUTINE:  S1457
  751             /
  752             /   Called from:
  753             /   1014 
  754             /   Total 0001 (1) calls
  755             ////////////////////////////////////////////////////////////////////////////////
  756             S1457,
  757 01457 0000      0                       / return area
  758 01460 7200      CLA                     /                                       @@1460=7200
  759 01461 1133      TAD   C0133             /                                       @@1461=1133
  760 01462 4551      JMS I C0151             / long call to S1473                    @@1462=4551
  761 01463 5657      JMP I S1457             / return                                @@1463=5657
  762             
  763             ////////////////////////////////////////////////////////////////////////////////
  764             /
  765             /   SUBROUTINE:  S1464
  766             /
  767             /   Called from:
  768             /   1035 1241 1443 
  769             /   Total 0003 (3) calls
  770             ////////////////////////////////////////////////////////////////////////////////
  771             S1464,
  772 01464 0000      0                       / return area
  773 01465 7200      CLA                     /                                       @@1465=7200
  774 01466 1147      TAD   C0147             /                                       @@1466=1147
  775 01467 4551      JMS I C0151             / long call to S1473                    @@1467=4551
  776 01470 1132      TAD   C0132             /                                       @@1470=1132
  777 01471 4551      JMS I C0151             / long call to S1473                    @@1471=4551
  778 01472 5664      JMP I S1464             / return                                @@1472=5664
  779             
  780             ////////////////////////////////////////////////////////////////////////////////
  781             /
  782             /   SUBROUTINE:  S1473
  783             /
  784             /   Called from:
  785             /   1030 1227 1414 1450 1455 1462 1467 1471 
  786             /   Total 0010 (8) calls
  787             ////////////////////////////////////////////////////////////////////////////////
  788             S1473,
  789 01473 0000      0                       / return area
  790             L1474,
  791 01474 6041      TSF                     / Skip if teleprinter flag is a 1.      @@1474=6041
  792 01475 5274      JMP   L1474             /                                       @@1475=5274
  793 01476 0131      AND   C0131             /                                       @@1476=0131
  794 01477 6046      TLS                     / Load the TTO from the content of AC4  @@1477=6046
  795 01500 7200      CLA                     /                                       @@1500=7200
  796 01501 5673      JMP I S1473             / return                                @@1501=5673
  797             
  798             ////////////////////////////////////////////////////////////////////////////////

      AUTOMATIC DISASSEMBLY OF test.bin BY D8TAPE                        Page 15


  799             /
  800             /   SUBROUTINE:  S1502
  801             /
  802             /   Called from:
  803             /   0226 1012 1036 1071 
  804             /   Total 0004 (4) calls
  805             ////////////////////////////////////////////////////////////////////////////////
  806             S1502,
  807 01502 0000      0                       / return area
  808 01503 7215  C1503,  7215                / CLA IAC RAR RAL                       
  809 01504 1173      TAD   C0173             /                                       @@1504=1173
  810 01505 7440      SZA                     /                                       @@1505=7440
  811 01506 5311      JMP   L1511             /                                       @@1506=5311
  812 01507 1040      TAD   C0040             /                                       @@1507=1040
  813 01510 7410      SKP                     /                                       @@1510=7410
  814             L1511,
  815 01511 7604      LAS                     /                                       @@1511=7604
  816 01512 5702      JMP I S1502             / return                                @@1512=5702
  817             
  818             ////////////////////////////////////////////////////////////////////////////////
  819             /
  820             /   SUBROUTINE:  S1513
  821             /
  822             /   Called from:
  823             /   0411 0431 0504 0526 0605 0630 0705 0723 
  824             /   Total 0010 (8) calls
  825             ////////////////////////////////////////////////////////////////////////////////
  826             S1513,
  827 01513 0000      0                       / return area
  828 01514 3042      DCA   D0042             /                                       @@1514=3042
  829 01515 7001      IAC                     /                                       @@1515=7001
  830 01516 1041      TAD   D0041             /                                       @@1516=1041
  831 01517 3041      DCA   D0041             /                                       @@1517=3041
  832 01520 1042      TAD   D0042             /                                       @@1520=1042
  833 01521 5713      JMP I S1513             / return                                @@1521=5713
  834             
  835             ////////////////////////////////////////////////////////////////////////////////
  836             /
  837             /   SUBROUTINE:  S1522
  838             /
  839             /   Called from:
  840             /   0446 0466 0544 0566 0647 0672 0736 0754 
  841             /   Total 0010 (8) calls
  842             ////////////////////////////////////////////////////////////////////////////////
  843             S1522,
  844 01522 0000      0                       / return area
  845 01523 3042      DCA   D0042             /                                       @@1523=3042
  846 01524 7040      CMA                     /                                       @@1524=7040
  847 01525 1041      TAD   D0041             /                                       @@1525=1041
  848 01526 3041      DCA   D0041             /                                       @@1526=3041
  849 01527 1042      TAD   D0042             /                                       @@1527=1042
  850 01530 5722      JMP I S1522             / return                                @@1530=5722
  851             
  852             ////////////////////////////////////////////////////////////////////////////////
  853             /
  854             /   SUBROUTINE:  S1531
  855             /

      AUTOMATIC DISASSEMBLY OF test.bin BY D8TAPE                        Page 16


  856             /   Called from:
  857             /   0403 0414 0475 0507 0575 0610 0701 0710 
  858             /   Total 0010 (8) calls
  859             ////////////////////////////////////////////////////////////////////////////////
  860             S1531,
  861 01531 0000      0                       / return area
  862 01532 4347      JMS   S1547             /                                       @@1532=4347
  863 01533 1053      TAD   D0053             /                                       @@1533=1053
  864 01534 3041      DCA   D0041             /                                       @@1534=3041
  865 01535 1051      TAD   D0051             /                                       @@1535=1051
  866 01536 1041      TAD   D0041             /                                       @@1536=1041
  867 01537 5731      JMP I S1531             / return                                @@1537=5731
  868             
  869             ////////////////////////////////////////////////////////////////////////////////
  870             /
  871             /   SUBROUTINE:  S1540
  872             /
  873             /   Called from:
  874             /   0440 0451 0535 0547 0637 0652 0732 0741 
  875             /   Total 0010 (8) calls
  876             ////////////////////////////////////////////////////////////////////////////////
  877             S1540,
  878 01540 0000      0                       / return area
  879 01541 4347      JMS   S1547             /                                       @@1541=4347
  880 01542 1054      TAD   C0054             /                                       @@1542=1054
  881 01543 3041      DCA   D0041             /                                       @@1543=3041
  882 01544 1051      TAD   D0051             /                                       @@1544=1051
  883 01545 1041      TAD   D0041             /                                       @@1545=1041
  884 01546 5740      JMP I S1540             / return                                @@1546=5740
  885             
  886             ////////////////////////////////////////////////////////////////////////////////
  887             /
  888             /   SUBROUTINE:  S1547
  889             /
  890             /   Called from:
  891             /   1532 1541 
  892             /   Total 0002 (2) calls
  893             ////////////////////////////////////////////////////////////////////////////////
  894             S1547,
  895 01547 0000      0                       / return area
  896 01550 4056      JMS   S0056             /                                       @@1550=4056
  897 01551 7300      CLA CLL                 / AC = 0000                             @@1551=7300
  898 01552 1057      TAD   D0057             /                                       @@1552=1057
  899 01553 7041      CIA                     /                                       @@1553=7041
  900 01554 1064      TAD   D0064             /                                       @@1554=1064
  901 01555 7650      SNA CLA                 /                                       @@1555=7650
  902 01556 5362      JMP   L1562             /                                       @@1556=5362
  903 01557 3053      DCA   D0053             /                                       @@1557=3053
  904 01560 3055      DCA   D0055             /                                       @@1560=3055
  905 01561 5370      JMP   L1570             /                                       @@1561=5370
  906             L1562,
  907 01562 1130      TAD   C0130             /                                       @@1562=1130
  908 01563 3053      DCA   D0053             /                                       @@1563=3053
  909 01564 1054      TAD   C0054             /                                       @@1564=1054
  910 01565 7040      CMA                     /                                       @@1565=7040
  911 01566 1053      TAD   D0053             /                                       @@1566=1053
  912 01567 3055      DCA   D0055             /                                       @@1567=3055

      AUTOMATIC DISASSEMBLY OF test.bin BY D8TAPE                        Page 17


  913             L1570,
  914 01570 5747      JMP I S1547             / return                                @@1570=5747
  915             
  916       1600  *1600
  917 01600 0000      AND   L0000             /                                       @@1600=0000
  918 01601 0000      AND   L0000             /                                       @@1601=0000
  919 01602 0000      AND   L0000             /                                       @@1602=0000
  920 01603 0000      AND   L0000             /                                       @@1603=0000
  921 01604 0000      AND   L0000             /                                       @@1604=0000
  922 01605 0000      AND   L0000             /                                       @@1605=0000
  923 01606 0000      AND   L0000             /                                       @@1606=0000
  924 01607 0000      AND   L0000             /                                       @@1607=0000
  925 01610 0000      AND   L0000             /                                       @@1610=0000
  926 01611 0000      AND   L0000             /                                       @@1611=0000
  927 01612 0000      AND   L0000             /                                       @@1612=0000
  928 01613 0000      AND   L0000             /                                       @@1613=0000
  929 01614 0000      AND   L0000             /                                       @@1614=0000
  930 01615 0000      AND   L0000             /                                       @@1615=0000
  931 01616 0000      AND   L0000             /                                       @@1616=0000
  932 01617 0000      AND   L0000             /                                       @@1617=0000
  933 01620 0000      AND   L0000             /                                       @@1620=0000
  934 01621 0000      AND   L0000             /                                       @@1621=0000
  935 01622 0000      AND   L0000             /                                       @@1622=0000
  936 01623 0000      AND   L0000             /                                       @@1623=0000
  937 01624 0000      AND   L0000             /                                       @@1624=0000
  938 01625 0000      AND   L0000             /                                       @@1625=0000
  939 01626 0000      AND   L0000             /                                       @@1626=0000
  940 01627 0000      AND   L0000             /                                       @@1627=0000
  941 01630 0000      AND   L0000             /                                       @@1630=0000
  942 01631 0000      AND   L0000             /                                       @@1631=0000
  943 01632 0000      AND   L0000             /                                       @@1632=0000
  944 01633 0000      AND   L0000             /                                       @@1633=0000
  945 01634 0000      AND   L0000             /                                       @@1634=0000
  946 01635 0000      AND   L0000             /                                       @@1635=0000
  947 01636 0000      AND   L0000             /                                       @@1636=0000
  948 01637 0000      AND   L0000             /                                       @@1637=0000
  949 01640 0000      AND   L0000             /                                       @@1640=0000
  950 01641 0000      AND   L0000             /                                       @@1641=0000
  951 01642 0000      AND   L0000             /                                       @@1642=0000
  952 01643 0000      AND   L0000             /                                       @@1643=0000
  953 01644 0000      AND   L0000             /                                       @@1644=0000
  954 01645 0000      AND   L0000             /                                       @@1645=0000
  955 01646 0000      AND   L0000             /                                       @@1646=0000
  956 01647 0000      AND   L0000             /                                       @@1647=0000
  957 01650 0000      AND   L0000             /                                       @@1650=0000
  958 01651 0000      AND   L0000             /                                       @@1651=0000
  959 01652 0000      AND   L0000             /                                       @@1652=0000
  960 01653 0000      AND   L0000             /                                       @@1653=0000
  961 01654 0000      AND   L0000             /                                       @@1654=0000
  962 01655 0000      AND   L0000             /                                       @@1655=0000
  963 01656 0000      AND   L0000             /                                       @@1656=0000
  964 01657 0000      AND   L0000             /                                       @@1657=0000
  965 01660 0000      AND   L0000             /                                       @@1660=0000
  966 01661 0000      AND   L0000             /                                       @@1661=0000
  967 01662 0000      AND   L0000             /                                       @@1662=0000
  968 01663 0000      AND   L0000             /                                       @@1663=0000
  969 01664 0000      AND   L0000             /                                       @@1664=0000

      AUTOMATIC DISASSEMBLY OF test.bin BY D8TAPE                        Page 18


  970 01665 0000      AND   L0000             /                                       @@1665=0000
  971 01666 0000      AND   L0000             /                                       @@1666=0000
  972 01667 0000      AND   L0000             /                                       @@1667=0000
  973 01670 0000      AND   L0000             /                                       @@1670=0000
  974 01671 0000      AND   L0000             /                                       @@1671=0000
  975 01672 0000      AND   L0000             /                                       @@1672=0000
  976 01673 0000      AND   L0000             /                                       @@1673=0000
  977 01674 0000      AND   L0000             /                                       @@1674=0000
  978 01675 0000      AND   L0000             /                                       @@1675=0000
  979 01676 0000      AND   L0000             /                                       @@1676=0000
  980 01677 0000      AND   L0000             /                                       @@1677=0000
  981 01700 0000      AND   L0000             /                                       @@1700=0000
  982 01701 0000      AND   L0000             /                                       @@1701=0000
  983 01702 0000      AND   L0000             /                                       @@1702=0000
  984 01703 0000      AND   L0000             /                                       @@1703=0000
  985 01704 0000      AND   L0000             /                                       @@1704=0000
  986 01705 0000      AND   L0000             /                                       @@1705=0000
  987 01706 0000      AND   L0000             /                                       @@1706=0000
  988 01707 0000      AND   L0000             /                                       @@1707=0000
  989 01710 0000      AND   L0000             /                                       @@1710=0000
  990 01711 0000      AND   L0000             /                                       @@1711=0000
  991 01712 0000      AND   L0000             /                                       @@1712=0000
  992 01713 0000      AND   L0000             /                                       @@1713=0000
  993 01714 0000      AND   L0000             /                                       @@1714=0000
  994 01715 0000      AND   L0000             /                                       @@1715=0000
  995 01716 0000      AND   L0000             /                                       @@1716=0000
  996 01717 0000      AND   L0000             /                                       @@1717=0000
  997 01720 0000      AND   L0000             /                                       @@1720=0000
  998 01721 0000      AND   L0000             /                                       @@1721=0000
  999 01722 0000      AND   L0000             /                                       @@1722=0000
 1000 01723 0000      AND   L0000             /                                       @@1723=0000
 1001 01724 0000      AND   L0000             /                                       @@1724=0000
 1002 01725 0000      AND   L0000             /                                       @@1725=0000
 1003 01726 0000      AND   L0000             /                                       @@1726=0000
 1004 01727 0000      AND   L0000             /                                       @@1727=0000
 1005 01730 0000      AND   L0000             /                                       @@1730=0000
 1006 01731 0000      AND   L0000             /                                       @@1731=0000
 1007 01732 0000      AND   L0000             /                                       @@1732=0000
 1008 01733 0000      AND   L0000             /                                       @@1733=0000
 1009 01734 0000      AND   L0000             /                                       @@1734=0000
 1010 01735 0000      AND   L0000             /                                       @@1735=0000
 1011 01736 0000      AND   L0000             /                                       @@1736=0000
 1012 01737 0000      AND   L0000             /                                       @@1737=0000
 1013 01740 0000      AND   L0000             /                                       @@1740=0000
 1014 01741 0000      AND   L0000             /                                       @@1741=0000
 1015 01742 0000      AND   L0000             /                                       @@1742=0000
 1016 01743 0000      AND   L0000             /                                       @@1743=0000
 1017 01744 0000      AND   L0000             /                                       @@1744=0000
 1018 01745 0000      AND   L0000             /                                       @@1745=0000
 1019 01746 0000      AND   L0000             /                                       @@1746=0000
 1020 01747 0000      AND   L0000             /                                       @@1747=0000
 1021 01750 0000      AND   L0000             /                                       @@1750=0000
 1022 01751 0000      AND   L0000             /                                       @@1751=0000
 1023 01752 0000      AND   L0000             /                                       @@1752=0000
 1024 01753 0000      AND   L0000             /                                       @@1753=0000
 1025 01754 0000      AND   L0000             /                                       @@1754=0000
 1026 01755 0000      AND   L0000             /                                       @@1755=0000

      AUTOMATIC DISASSEMBLY OF test.bin BY D8TAPE                        Page 19


 1027 01756 0000      AND   L0000             /                                       @@1756=0000
 1028 01757 0000      AND   L0000             /                                       @@1757=0000
 1029 01760 0000      AND   L0000             /                                       @@1760=0000
 1030 01761 0000      AND   L0000             /                                       @@1761=0000
 1031 01762 0000      AND   L0000             /                                       @@1762=0000
 1032 01763 0000      AND   L0000             /                                       @@1763=0000
 1033 01764 0000      AND   L0000             /                                       @@1764=0000
 1034 01765 0000      AND   L0000             /                                       @@1765=0000
 1035 01766 0000      AND   L0000             /                                       @@1766=0000
 1036 01767 0000      AND   L0000             /                                       @@1767=0000
 1037 01770 0000      AND   L0000             /                                       @@1770=0000
 1038 01771 0000      AND   L0000             /                                       @@1771=0000
 1039 01772 0000      AND   L0000             /                                       @@1772=0000
 1040 01773 0000      AND   L0000             /                                       @@1773=0000
 1041 01774 0000      AND   L0000             /                                       @@1774=0000
 1042 01775 0000      AND   L0000             /                                       @@1775=0000
 1043 01776 0000      AND   L0000             /                                       @@1776=0000
 1044 01777 0000      AND   L0000             /                                       @@1777=0000
 1045             
 1046       0000  *0000
 1047             
 1048       0130  *0130
 1049 00130 2000  C0130,  2000                / ISZ   L0000                           
 1050 00131 0177  C0131,  0177                / AND   C0177                           
 1051 00132 0212  C0132,  0212                / AND   AI2                             
 1052 00133 0207  C0133,  0207                / AND   C0007                           
 1053 00134 0240  C0134,  0240                / AND   C0040                           
 1054 00135 0237  C0135,  0237                / AND   C0037                           
 1055 00136 0100  C0136,  0100                / AND   C0100                           
 1056 00137 7741  C0137,  7741                / CLA MQA SCA                           
 1057 00140 0077  C0140,  0077                / AND   C0077                           
 1058 00141 7774  C0141,  7774                / SPA SNA SZL CLA OSR                   
 1059             C0142,
 1060 00142 1452  C0142,  1452                / TAD I D0052                           
 1061 00143 1751  C0143,  1751                / TAD I C0151                           
 1062 00144 7743  C0144,  7743                / CLA MQA SCA SCL +                     
 1063 00145 0017  C0145,  0017                / AND   AI7                             
 1064 00146 1700  C0146,  1700                / TAD I C0100                           
 1065             C0147,
 1066 00147 0215  C0147,  0215                / AND   AI5                             
 1067             C0150,
 1068 00150 1464  C0150,  1464                / TAD I D0064                           
 1069             C0151,
 1070 00151 1473  C0151,  1473                / TAD I C0073                           
 1071 00152 0260  C0152,  0260                / AND   C0060                           
 1072             C0153,
 1073 00153 1400  C0153,  1400                / TAD I L0000                           
 1074             C0154,
 1075 00154 1420  C0154,  1420                / TAD I C0020                           
 1076             C0155,
 1077 00155 1457  C0155,  1457                / TAD I D0057                           
 1078             C0156,
 1079 00156 1000  C0156,  1000                / TAD   L0000                           
 1080             C0157,
 1081 00157 1141  C0157,  1141                / TAD   C0141                           
 1082             C0160,
 1083 00160 1107  C0160,  1107                / TAD   C0107                           

      AUTOMATIC DISASSEMBLY OF test.bin BY D8TAPE                        Page 20


 1084             C0161,
 1085 00161 1522  C0161,  1522                / TAD I C0122                           
 1086             C0162,
 1087 00162 1540  C0162,  1540                / TAD I C0140                           
 1088             C0163,
 1089 00163 1200  C0163,  1200                / TAD   L0000                           
 1090             C0164,
 1091 00164 1513  C0164,  1513                / TAD I C0113                           
 1092             C0165,
 1093 00165 1531  C0165,  1531                / TAD I C0131                           
 1094             C0166,
 1095 00166 1062  C0166,  1062                / TAD   C0062                           
 1096             C0167,
 1097 00167 0400  C0167,  0400                / AND I L0000                           
 1098 00170 6201  C0170,  6201                / CDF 0^10                              
 1099 00171 0070  C0171,  0070                / AND   C0070                           
 1100             C0172,
 1101 00172 1502  C0172,  1502                / TAD I C0102                           
 1102 00173 7770  C0173,  7770                / SPA SNA SZL CLA                       
 1103 00174 6440  C0174,  6440                / 6440                                  
 1104 00175 0007  C0175,  0007                / AND   C0007                           
 1105             C0176,
 1106 00176 1267  C0176,  1267                / TAD   C0067                           
 1107 00177 7600  C0177,  7600                / 7600                                  
 1108             
 1109       0000  *0000
 1110             
 1111       7751  *7751
 1112             C7751,
 1113 07751 0200  C7751,  0200                / AND   C7600                           
 1114 07752 6032  C7752,  6032                / KCC                                   
 1115 07753 1352      TAD   C7752             /                                       @@7753=1352
 1116 07754 3356      DCA   D7756             /                                       @@7754=3356
 1117 07755 5751      JMP I C7751             / long jump to L0200                    @@7755=5751
 1118 07756 5353  D7756,  5353                / JMP   C7753                           
 1119             

      No detected errors

      AUTOMATIC DISASSEMBLY OF test.bin BY D8TAPE                        Page 21
                                                                    Symbol Table

    1  C0040  00040   C0677  00677   L0215  00215   S1540  01540 
    2  C0044  00044   C0727  00727   L0400  00400   S1547  01547 
    3  C0054  00054   C0777  00777   L0404  00404 
    4  C0060  00060   C1000  01000   L0415  00415 
    5  C0062  00062   C1044  01044   L0427  00427 
    6  C0067  00067   C1050  01050   L0441  00441 
    7  C0130  00130   C1051  01051   L0452  00452 
    8  C0131  00131   C1052  01052   L0464  00464 
    9  C0132  00132   C1053  01053   L0476  00476 
   10  C0133  00133   C1054  01054   L0510  00510 
   11  C0134  00134   C1055  01055   L0524  00524 
   12  C0135  00135   C1122  01122   L0536  00536 
   13  C0136  00136   C1246  01246   L0550  00550 
   14  C0137  00137   C1247  01247   L0564  00564 
   15  C0140  00140   C1250  01250   L0576  00576 
   16  C0141  00141   C1251  01251   L0611  00611 
   17  C0142  00142   C1253  01253   L0626  00626 
   18  C0143  00143   C1254  01254   L0640  00640 
   19  C0144  00144   C1256  01256   L0653  00653 
   20  C0145  00145   C1257  01257   L0670  00670 
   21  C0146  00146   C1260  01260   L0703  00703 
   22  C0147  00147   C1262  01262   L0712  00712 
   23  C0150  00150   C1263  01263   L0723  00723 
   24  C0151  00151   C1265  01265   L0734  00734 
   25  C0152  00152   C1326  01326   L0743  00743 
   26  C0153  00153   C1503  01503   L0754  00754 
   27  C0154  00154   C7751  07751   L1000  01000 
   28  C0155  00155   C7752  07752   L1104  01104 
   29  C0156  00156   D0000  00000   L1132  01132 
   30  C0157  00157   D0001  00001   L1212  01212 
   31  C0160  00160   D0041  00041   L1242  01242 
   32  C0161  00161   D0042  00042   L1316  01316 
   33  C0162  00162   D0043  00043   L1405  01405 
   34  C0163  00163   D0046  00046   L1425  01425 
   35  C0164  00164   D0047  00047   L1445  01445 
   36  C0165  00165   D0050  00050   L1474  01474 
   37  C0166  00166   D0051  00051   L1511  01511 
   38  C0167  00167   D0052  00052   L1562  01562 
   39  C0170  00170   D0053  00053   L1570  01570 
   40  C0171  00171   D0055  00055   S0056  00056 
   41  C0172  00172   D0057  00057   S0063  00063 
   42  C0173  00173   D0064  00064   S1062  01062 
   43  C0174  00174   D0225  00225   S1107  01107 
   44  C0175  00175   D1022  01022   S1141  01141 
   45  C0176  00176   D1123  01123   S1200  01200 
   46  C0177  00177   D1140  01140   S1267  01267 
   47  C0200  00200   D1223  01223   S1400  01400 
   48  C0204  00204   D1277  01277   S1420  01420 
   49  C0212  00212   D1316  01316   S1434  01434 
   50  C0222  00222   D1322  01322   S1452  01452 
   51  C0401  00401   D1331  01331   S1457  01457 
   52  C0402  00402   D1333  01333   S1464  01464 
   53  C0434  00434   D1334  01334   S1473  01473 
   54  C0437  00437   D1335  01335   S1502  01502 
   55  C0473  00473   D7756  07756   S1513  01513 
   56  C0573  00573   L0000  00000   S1522  01522 
   57  C0676  00676   L0200  00200   S1531  01531 

      AUTOMATIC DISASSEMBLY OF test.bin BY D8TAPE                        Page 22
                                                                 Cross Reference

    1 A     33  C0040       428    595    812
    2 A     37  C0044       405
    3 A     45  C0054       880    909
    4 A     59  C0060   
    5 A     61  C0062   
    6 A     76  C0067   
    7 A   1049  C0130       599    907
    8 A   1050  C0131       793
    9 A   1051  C0132       185    776
   10 A   1052  C0133       759
   11 A   1053  C0134       744
   12 A   1054  C0135       729
   13 A   1055  C0136       728
   14 A   1056  C0137       721
   15 A   1057  C0140       718
   16 A   1058  C0141       670
   17 A   1060  C0142       561    564    567    575    578
   18 A   1061  C0143       506    532
   19 A   1062  C0144       498
   20 A   1063  C0145       486    551
   21 A   1064  C0146       459
   22 A   1066  C0147       424    426    774
   23 A   1068  C0150       420    582    724
   24 A   1070  C0151       415    572    680    730    745    760    775    777
   25 A   1071  C0152       414    571    679
   26 A   1073  C0153       407    419    560    563    566    574    577    581
   27 A   1075  C0154       404    408    416    555
   28 A   1077  C0155       403
   29 A   1079  C0156       383
   30 A   1081  C0157       333    341    361    369
   31 A   1083  C0160       190    201    208    225    236    243    260    272
   32                       279    297    309    316
   33 A   1085  C0161       161    179    229    249    302    323    363    379
   34 A   1087  C0162       154    164    221    232    293    305    358    366
   35 A   1089  C0163       143    175    210    245    282    319    349    377
   36 A   1091  C0164       129    147    194    214    265    286    335    351
   37 A   1093  C0165       122    132    186    197    256    268    330    338
   38 A   1095  C0166       119    151    183    218    253    290
   39 A   1097  C0167       115
   40 A   1098  C0170       109    112    618    621    625    632
   41 A   1099  C0171       108
   42 A   1101  C0172       105    220    401    421    458
   43 A   1102  C0173       102    809
   44 A   1103  C0174        99
   45 A   1104  C0175        98    413    678
   46 A   1106  C0176        88    396
   47 A   1107  C0177        87    395
   48 A     82  C0200   
   49 A     86  C0204   
   50 A     92  C0212   
   51 A    101  C0222   
   52 A    120  C0401   
   53 A    121  C0402   
   54 A    150  C0434       255
   55 A    153  C0437   
   56 A    184  C0473   
   57 A    254  C0573   

      AUTOMATIC DISASSEMBLY OF test.bin BY D8TAPE                        Page 23
                                                                 Cross Reference

   58 A    327  C0676       292
   59 A    328  C0677   
   60 A    355  C0727       329
   61 A    387  C0777       267
   62 A    391  C1000   
   63 A    427  C1044   
   64 A    431  C1050   
   65 A    432  C1051   
   66 A    433  C1052   
   67 A    434  C1053   
   68 A    435  C1054   
   69 A    436  C1055   
   70 A    494  C1122       438
   71 A    588  C1246       556
   72 A    589  C1247   
   73 A    590  C1250   
   74 A    591  C1251   
   75 A    593  C1253   
   76 A    594  C1254   
   77 A    596  C1256   
   78 A    597  C1257   
   79 A    598  C1260   
   80 A    600  C1262   
   81 A    601  C1263   
   82 A    603  C1265   
   83 A    647  C1326       602
   84 A    808  C1503   
   85 A   1113  C7751      1117
   86 A   1114  C7752      1115
   87 A     27  D0000   
   88 A     28  D0001       429
   89 A     34  D0041       126    137    158    169    191    203    226    238
   90                       262    274    299    311    334    343    362    371
   91                       573    830    831    847    848    864    866    881
   92                       883
   93 A     35  D0042       484    489    499    504    522    523    526    527
   94                       528    531    669    673    676    677    697    700
   95                       703    705    828    832    845    849
   96 A     36  D0043       488    493    501    503    671    681
   97 A     39  D0046       142    174    209    244    281    318    348    376
   98                       576    580
   99 A     40  D0047       140    172    206    241    277    314    346    374
  100                       579
  101 A     41  D0050       114    453    454    565
  102 A     42  D0051        84     97    406    485    559    865    882
  103 A     43  D0052        85    418    550    562    584
  104 A     44  D0053       863    903    908    911
  105 A     46  D0055       130    148    162    180    195    215    230    250
  106                       266    287    303    324    336    352    364    380
  107                       417    904    912
  108 A     58  D0057       110    410    898
  109 A     73  D0064       113    900
  110 A    104  D0225       100
  111 A    409  D1022       437
  112 A    495  D1123       430
  113 A    509  D1140       439
  114 A    568  D1223       592

      AUTOMATIC DISASSEMBLY OF test.bin BY D8TAPE                        Page 24
                                                                 Cross Reference

  115 A    623  D1277       622
  116 A    639  D1316   
  117 A    643  D1322       633
  118 A    650  D1331       619
  119 A    652  D1333       616
  120 A    653  D1334       629    640    641
  121 A    654  D1335       636    644    645
  122 A   1118  D7756      1116
  123 A     26  L0000        38     89     91    357    397    399    440    496
  124                       604    917    918    919    920    921    922    923
  125                       924    925    926    927    928    929    930    931
  126                       932    933    934    935    936    937    938    939
  127                       940    941    942    943    944    945    946    947
  128                       948    949    950    951    952    953    954    955
  129                       956    957    958    959    960    961    962    963
  130                       964    965    966    967    968    969    970    971
  131                       972    973    974    975    976    977    978    979
  132                       980    981    982    983    984    985    986    987
  133                       988    989    990    991    992    993    994    995
  134                       996    997    998    999   1000   1001   1002   1003
  135                      1004   1005   1006   1007   1008   1009   1010   1011
  136                      1012   1013   1014   1015   1016   1017   1018   1019
  137                      1020   1021   1022   1023   1024   1025   1026   1027
  138                      1028   1029   1030   1031   1032   1033   1034   1035
  139                      1036   1037   1038   1039   1040   1041   1042   1043
  140                      1044
  141 A     81  L0200   
  142 A     95  L0215   
  143 A    118  L0400   
  144 A    123  L0404       131
  145 A    133  L0415       149
  146 A    144  L0427       139
  147 A    155  L0441       163
  148 A    165  L0452       181
  149 A    176  L0464       171
  150 A    187  L0476       196
  151 A    198  L0510       216
  152 A    211  L0524       205
  153 A    222  L0536       231
  154 A    233  L0550       251
  155 A    246  L0564       240
  156 A    257  L0576   
  157 A    269  L0611       288
  158 A    283  L0626       276
  159 A    294  L0640       304
  160 A    306  L0653       325
  161 A    320  L0670       313
  162 A    332  L0703       337
  163 A    340  L0712       353
  164 A    350  L0723       345
  165 A    360  L0734       365
  166 A    368  L0743       381
  167 A    378  L0754       373
  168 A    390  L1000       393    398
  169 A    469  L1104       461    464
  170 A    502  L1132       505
  171 A    558  L1212       553

      AUTOMATIC DISASSEMBLY OF test.bin BY D8TAPE                        Page 25
                                                                 Cross Reference

  172 A    583  L1242       586
  173 A    638  L1316       626    648
  174 A    672  L1405       682
  175 A    699  L1425       706
  176 A    726  L1445       723
  177 A    790  L1474       792
  178 A    814  L1511       811
  179 A    906  L1562       902
  180 A    913  L1570       905
  181 A     56  S0056       557    896
  182 A     71  S0063       182    217    252    289    326    354    382    554
  183 A    450  S1062       455    462    465    466    467    468    470    471
  184                       472
  185 A    482  S1107   
  186 A    519  S1141       535
  187 A    547  S1200       587
  188 A    614  S1267       624    627    628    630    631    634    635    637
  189                       651
  190 A    666  S1400       683
  191 A    693  S1420       696    698    720
  192 A    716  S1434       702    704    725    731
  193 A    741  S1452       746
  194 A    756  S1457       761
  195 A    771  S1464       778
  196 A    788  S1473       796
  197 A    806  S1502       816
  198 A    826  S1513       833
  199 A    843  S1522       850
  200 A    860  S1531       867
  201 A    877  S1540       884
  202 A    894  S1547       862    879    914

      AUTOMATIC DISASSEMBLY OF test.bin BY D8TAPE                        Page 26
                                                                      Memory Map

    1 00000/ XXXX.... ........ ........ ........ XXXXXXXX XXXXXXXX XXXXXXXX ........
    2 00100/ ........ ........ ........ XXXXXXXX XXXXXXXX XXXXXXXX XXXXXXXX XXXXXXXX
    3
    4 00200/ XXXXXXXX XXXXXXXX XXXXXXXX XXXXXXXX X....... ........ ........ ........
    5 00300/ ........ ........ ........ ........ ........ ........ ........ ........
    6
    7 00400/ XXXXXXXX XXXXXXXX XXXXXXXX XXXXXXXX XXXXXXXX XXXXXXXX XXXXXXXX XXXXXXXX
    8 00500/ XXXXXXXX XXXXXXXX XXXXXXXX XXXXXXXX XXXXXXXX XXXXXXXX XXXXXXXX XXXXXXXX
    9
   10 00600/ XXXXXXXX XXXXXXXX XXXXXXXX XXXXXXXX XXXXXXXX XXXXXXXX XXXXXXXX XXXXXXXX
   11 00700/ XXXXXXXX XXXXXXXX XXXXXXXX XXXXXXXX XXXXXXXX XXXXXXXX X....... .......X
   12
   13 01000/ XXXXXXXX XXXXXXXX XXXXXXXX XXXXXXXX XXXXXXXX XXXXXXXX XXXXXXXX XXXXXXXX
   14 01100/ XXXXXXXX XXXXXXXX XXXXXXXX XXXXXXXX XXXXXXXX XXXXXXXX X....... ........
   15
   16 01200/ XXXXXXXX XXXXXXXX XXXXXXXX XXXXXXXX XXXXXXXX XXXXXXXX XXXXXXXX XXXXXXXX
   17 01300/ XXXXXXXX XXXXXXXX XXXXXXXX XXXXXX.. ........ ........ ........ ........
   18
   19 01400/ XXXXXXXX XXXXXXXX XXXXXXXX XXXXXXXX XXXXXXXX XXXXXXXX XXXXXXXX XXXXXXXX
   20 01500/ XXXXXXXX XXXXXXXX XXXXXXXX XXXXXXXX XXXXXXXX XXXXXXXX XXXXXXXX X.......
   21
   22 01600/ XXXXXXXX XXXXXXXX XXXXXXXX XXXXXXXX XXXXXXXX XXXXXXXX XXXXXXXX XXXXXXXX
   23 01700/ XXXXXXXX XXXXXXXX XXXXXXXX XXXXXXXX XXXXXXXX XXXXXXXX XXXXXXXX XXXXXXXX
   24
   25 02000/ ........ ........ ........ ........ ........ ........ ........ ........
   26 02100/ ........ ........ ........ ........ ........ ........ ........ ........
   27
   28 02200/ ........ ........ ........ ........ ........ ........ ........ ........
   29 02300/ ........ ........ ........ ........ ........ ........ ........ ........
   30
   31 02400/ ........ ........ ........ ........ ........ ........ ........ ........
   32 02500/ ........ ........ ........ ........ ........ ........ ........ ........
   33
   34 02600/ ........ ........ ........ ........ ........ ........ ........ ........
   35 02700/ ........ ........ ........ ........ ........ ........ ........ ........
   36
   37 03000/ ........ ........ ........ ........ ........ ........ ........ ........
   38 03100/ ........ ........ ........ ........ ........ ........ ........ ........
   39
   40 03200/ ........ ........ ........ ........ ........ ........ ........ ........
   41 03300/ ........ ........ ........ ........ ........ ........ ........ ........
   42
   43 03400/ ........ ........ ........ ........ ........ ........ ........ ........
   44 03500/ ........ ........ ........ ........ ........ ........ ........ ........
   45
   46 03600/ ........ ........ ........ ........ ........ ........ ........ ........
   47 03700/ ........ ........ ........ ........ ........ ........ ........ ........
   48

      AUTOMATIC DISASSEMBLY OF test.bin BY D8TAPE                        Page 27
                                                                      Memory Map

   49 04000/ ........ ........ ........ ........ ........ ........ ........ ........
   50 04100/ ........ ........ ........ ........ ........ ........ ........ ........
   51
   52 04200/ ........ ........ ........ ........ ........ ........ ........ ........
   53 04300/ ........ ........ ........ ........ ........ ........ ........ ........
   54
   55 04400/ ........ ........ ........ ........ ........ ........ ........ ........
   56 04500/ ........ ........ ........ ........ ........ ........ ........ ........
   57
   58 04600/ ........ ........ ........ ........ ........ ........ ........ ........
   59 04700/ ........ ........ ........ ........ ........ ........ ........ ........
   60
   61 05000/ ........ ........ ........ ........ ........ ........ ........ ........
   62 05100/ ........ ........ ........ ........ ........ ........ ........ ........
   63
   64 05200/ ........ ........ ........ ........ ........ ........ ........ ........
   65 05300/ ........ ........ ........ ........ ........ ........ ........ ........
   66
   67 05400/ ........ ........ ........ ........ ........ ........ ........ ........
   68 05500/ ........ ........ ........ ........ ........ ........ ........ ........
   69
   70 05600/ ........ ........ ........ ........ ........ ........ ........ ........
   71 05700/ ........ ........ ........ ........ ........ ........ ........ ........
   72
   73 06000/ ........ ........ ........ ........ ........ ........ ........ ........
   74 06100/ ........ ........ ........ ........ ........ ........ ........ ........
   75
   76 06200/ ........ ........ ........ ........ ........ ........ ........ ........
   77 06300/ ........ ........ ........ ........ ........ ........ ........ ........
   78
   79 06400/ ........ ........ ........ ........ ........ ........ ........ ........
   80 06500/ ........ ........ ........ ........ ........ ........ ........ ........
   81
   82 06600/ ........ ........ ........ ........ ........ ........ ........ ........
   83 06700/ ........ ........ ........ ........ ........ ........ ........ ........
   84
   85 07000/ ........ ........ ........ ........ ........ ........ ........ ........
   86 07100/ ........ ........ ........ ........ ........ ........ ........ ........
   87
   88 07200/ ........ ........ ........ ........ ........ ........ ........ ........
   89 07300/ ........ ........ ........ ........ ........ ........ ........ ........
   90
   91 07400/ ........ ........ ........ ........ ........ ........ ........ ........
   92 07500/ ........ ........ ........ ........ ........ ........ ........ ........
   93
   94 07600/ ........ ........ ........ ........ ........ ........ ........ ........
   95 07700/ ........ ........ ........ ........ ........ .XXXXXX. ........ ........
   96
